; ModuleID = '20/1322.c'
source_filename = "20/1322.c"
target datalayout = "e-m:e-p270:32:32-p271:32:32-p272:64:64-i64:64-f80:128-n8:16:32:64-S128"
target triple = "x86_64-pc-linux-gnu"

@.str = private unnamed_addr constant [5 x i8] c"%s%s\00", align 1
@.str.1 = private unnamed_addr constant [4 x i8] c"%s\0A\00", align 1

; Function Attrs: noinline nounwind uwtable
define dso_local i32 @main() #0 {
  %1 = alloca i32, align 4
  %2 = alloca [14 x i8], align 1
  %3 = alloca [4 x i8], align 1
  %4 = alloca i32, align 4
  %5 = alloca i32, align 4
  %6 = alloca i32, align 4
  store i32 0, i32* %1, align 4
  br label %7

7:                                                ; preds = %87, %0
  %8 = getelementptr inbounds [14 x i8], [14 x i8]* %2, i64 0, i64 0
  %9 = getelementptr inbounds [4 x i8], [4 x i8]* %3, i64 0, i64 0
  %10 = call i32 (i8*, ...) @__isoc99_scanf(i8* getelementptr inbounds ([5 x i8], [5 x i8]* @.str, i64 0, i64 0), i8* %8, i8* %9)
  %11 = icmp ne i32 %10, -1
  br i1 %11, label %12, label %88

12:                                               ; preds = %7
  store i32 0, i32* %5, align 4
  store i32 0, i32* %4, align 4
  br label %13

13:                                               ; preds = %31, %12
  %14 = load i32, i32* %4, align 4
  %15 = icmp slt i32 %14, 10
  br i1 %15, label %16, label %34

16:                                               ; preds = %13
  %17 = load i32, i32* %5, align 4
  %18 = sext i32 %17 to i64
  %19 = getelementptr inbounds [14 x i8], [14 x i8]* %2, i64 0, i64 %18
  %20 = load i8, i8* %19, align 1
  %21 = sext i8 %20 to i32
  %22 = load i32, i32* %4, align 4
  %23 = sext i32 %22 to i64
  %24 = getelementptr inbounds [14 x i8], [14 x i8]* %2, i64 0, i64 %23
  %25 = load i8, i8* %24, align 1
  %26 = sext i8 %25 to i32
  %27 = icmp slt i32 %21, %26
  br i1 %27, label %28, label %30

28:                                               ; preds = %16
  %29 = load i32, i32* %4, align 4
  store i32 %29, i32* %5, align 4
  br label %30

30:                                               ; preds = %28, %16
  br label %31

31:                                               ; preds = %30
  %32 = load i32, i32* %4, align 4
  %33 = add nsw i32 %32, 1
  store i32 %33, i32* %4, align 4
  br label %13

34:                                               ; preds = %13
  store i32 12, i32* %4, align 4
  br label %35

35:                                               ; preds = %49, %34
  %36 = load i32, i32* %4, align 4
  %37 = load i32, i32* %5, align 4
  %38 = add nsw i32 %37, 3
  %39 = icmp sgt i32 %36, %38
  br i1 %39, label %40, label %52

40:                                               ; preds = %35
  %41 = load i32, i32* %4, align 4
  %42 = sub nsw i32 %41, 3
  %43 = sext i32 %42 to i64
  %44 = getelementptr inbounds [14 x i8], [14 x i8]* %2, i64 0, i64 %43
  %45 = load i8, i8* %44, align 1
  %46 = load i32, i32* %4, align 4
  %47 = sext i32 %46 to i64
  %48 = getelementptr inbounds [14 x i8], [14 x i8]* %2, i64 0, i64 %47
  store i8 %45, i8* %48, align 1
  br label %49

49:                                               ; preds = %40
  %50 = load i32, i32* %4, align 4
  %51 = add nsw i32 %50, -1
  store i32 %51, i32* %4, align 4
  br label %35

52:                                               ; preds = %35
  %53 = load i32, i32* %5, align 4
  %54 = add nsw i32 %53, 1
  store i32 %54, i32* %4, align 4
  br label %55

55:                                               ; preds = %71, %52
  %56 = load i32, i32* %4, align 4
  %57 = load i32, i32* %5, align 4
  %58 = add nsw i32 %57, 4
  %59 = icmp slt i32 %56, %58
  br i1 %59, label %60, label %74

60:                                               ; preds = %55
  %61 = load i32, i32* %4, align 4
  %62 = load i32, i32* %5, align 4
  %63 = sub nsw i32 %61, %62
  %64 = sub nsw i32 %63, 1
  %65 = sext i32 %64 to i64
  %66 = getelementptr inbounds [4 x i8], [4 x i8]* %3, i64 0, i64 %65
  %67 = load i8, i8* %66, align 1
  %68 = load i32, i32* %4, align 4
  %69 = sext i32 %68 to i64
  %70 = getelementptr inbounds [14 x i8], [14 x i8]* %2, i64 0, i64 %69
  store i8 %67, i8* %70, align 1
  br label %71

71:                                               ; preds = %60
  %72 = load i32, i32* %4, align 4
  %73 = add nsw i32 %72, 1
  store i32 %73, i32* %4, align 4
  br label %55

74:                                               ; preds = %55
  %75 = getelementptr inbounds [14 x i8], [14 x i8]* %2, i64 0, i64 0
  %76 = call i32 (i8*, ...) @printf(i8* getelementptr inbounds ([4 x i8], [4 x i8]* @.str.1, i64 0, i64 0), i8* %75)
  store i32 0, i32* %6, align 4
  br label %77

77:                                               ; preds = %84, %74
  %78 = load i32, i32* %6, align 4
  %79 = icmp slt i32 %78, 13
  br i1 %79, label %80, label %87

80:                                               ; preds = %77
  %81 = load i32, i32* %6, align 4
  %82 = sext i32 %81 to i64
  %83 = getelementptr inbounds [14 x i8], [14 x i8]* %2, i64 0, i64 %82
  store i8 0, i8* %83, align 1
  br label %84

84:                                               ; preds = %80
  %85 = load i32, i32* %6, align 4
  %86 = add nsw i32 %85, 1
  store i32 %86, i32* %6, align 4
  br label %77

87:                                               ; preds = %77
  br label %7

88:                                               ; preds = %7
  ret i32 0
}

declare dso_local i32 @__isoc99_scanf(i8*, ...) #1

declare dso_local i32 @printf(i8*, ...) #1


!llvm.module.flags = !{!0}
!llvm.ident = !{!1}

!0 = !{i32 1, !"wchar_size", i32 4}
!1 = !{!"clang version 10.0.0-4ubuntu1 "}
